; Function Attrs: mustprogress nofree nounwind uwtable
define void @_ZN3gmx18AbstractPlotModule13frameFinishedERKNS_23AnalysisDataFrameHeaderE(ptr noundef nonnull readonly align 8 captures(none) dereferenceable(16) %0, ptr nonnull readnone align 4 captures(none) %1) unnamed_addr #4 align 2 {
  %3 = getelementptr inbounds nuw i8, ptr %0, i64 8
  %4 = load ptr, ptr %3, align 8, !tbaa !4
  %5 = getelementptr inbounds nuw i8, ptr %4, i64 48
  %6 = load ptr, ptr %5, align 8, !tbaa !32
  %.not = icmp eq ptr %6, null
  br i1 %.not, label %8, label %7

7:                                                ; preds = %2
  %fputc = tail call i32 @fputc(i32 10, ptr nonnull %6)
  br label %8

8:                                                ; preds = %2, %7
  ret void
}